target datalayout = "e-m:e-p270:32:32-p271:32:32-p272:64:64-i64:64-i128:128-f80:128-n8:16:32:64-S128"
target triple = "x86_64-pc-linux-gnu"

%"class.pkpy::unique_ptr_128" = type { ptr }
%"struct.pkpy::StrName" = type { i16 }
%"struct.pkpy::Expr.base" = type <{ ptr, i32 }>
%"struct.pkpy::Expr" = type <{ ptr, i32, [4 x i8] }>
%"struct.pkpy::AttribExpr" = type <{ %"struct.pkpy::Expr.base", [4 x i8], %"class.pkpy::unique_ptr_128", %"struct.pkpy::StrName", [6 x i8] }>

; Function Attrs: mustprogress nounwind uwtable
define linkonce_odr noundef ptr @_ZNK4pkpy14unique_ptr_128INS_4ExprEEptEv(ptr noundef nonnull align 8 dereferenceable(8) %0) #5 comdat align 2 {
  %2 = alloca ptr, align 8
  store ptr %0, ptr %2, align 8
  %3 = load ptr, ptr %2, align 8
  %4 = getelementptr inbounds %"class.pkpy::unique_ptr_128", ptr %3, i32 0, i32 0
  %5 = load ptr, ptr %4, align 8
  ret ptr %5
}

; Function Attrs: mustprogress uwtable
define void @_ZN4pkpy10AttribExpr5emit_EPNS_15CodeEmitContextE(ptr noundef nonnull align 8 dereferenceable(26) %0, ptr noundef %1) unnamed_addr #4 align 2 {
  %3 = alloca ptr, align 8
  %4 = alloca ptr, align 8
  store ptr %0, ptr %3, align 8
  store ptr %1, ptr %4, align 8
  %5 = load ptr, ptr %3, align 8
  %6 = getelementptr inbounds %"struct.pkpy::AttribExpr", ptr %5, i32 0, i32 2
  %7 = call noundef ptr @_ZNK4pkpy14unique_ptr_128INS_4ExprEEptEv(ptr noundef nonnull align 8 dereferenceable(8) %6)
  %8 = load ptr, ptr %4, align 8
  %9 = load ptr, ptr %7, align 8
  %10 = getelementptr inbounds ptr, ptr %9, i64 2
  %11 = load ptr, ptr %10, align 8
  call void %11(ptr noundef nonnull align 8 dereferenceable(12) %7, ptr noundef %8)
  %12 = load ptr, ptr %4, align 8
  %13 = getelementptr inbounds %"struct.pkpy::AttribExpr", ptr %5, i32 0, i32 3
  %14 = getelementptr inbounds %"struct.pkpy::StrName", ptr %13, i32 0, i32 0
  %15 = load i16, ptr %14, align 8
  %16 = getelementptr inbounds %"struct.pkpy::Expr", ptr %5, i32 0, i32 1
  %17 = load i32, ptr %16, align 8
  %18 = call noundef i32 @_ZN4pkpy15CodeEmitContext5emit_ENS_6OpcodeEtib(ptr noundef nonnull align 8 dereferenceable(232) %12, i8 noundef zeroext 18, i16 noundef zeroext %15, i32 noundef %17, i1 noundef zeroext false)
  ret void
}